target datalayout = "e-m:e-p270:32:32-p271:32:32-p272:64:64-i64:64-i128:128-f80:128-n8:16:32:64-S128"
target triple = "x86_64-pc-linux-gnu"

; Function Attrs: mustprogress nounwind uwtable
define hidden noundef ptr @_ZN13ReductionNode5IdealEP8PhaseGVNb(ptr noundef nonnull align 8 dereferenceable(72) %0, ptr noundef %1, i1 noundef zeroext %2) unnamed_addr #1 align 2 {
  %4 = alloca ptr, align 8
  %5 = alloca ptr, align 8
  %6 = alloca ptr, align 8
  %7 = alloca i8, align 1
  %8 = alloca ptr, align 8
  store ptr %0, ptr %5, align 8
  store ptr %1, ptr %6, align 8
  %9 = zext i1 %2 to i8
  store i8 %9, ptr %7, align 1
  %10 = load ptr, ptr %5, align 8
  %11 = load ptr, ptr %10, align 8
  %12 = getelementptr inbounds ptr, ptr %11, i64 24
  %13 = load ptr, ptr %12, align 8
  %14 = call noundef ptr %13(ptr noundef nonnull align 8 dereferenceable(72) %10)
  store ptr %14, ptr %8, align 8
  %15 = load ptr, ptr %8, align 8
  %16 = call noundef zeroext i1 @_ZN7Matcher31vector_needs_partial_operationsEP4NodePK8TypeVect(ptr noundef %10, ptr noundef %15)
  br i1 %16, label %17, label %21

17:                                               ; preds = %3
  %18 = load ptr, ptr %6, align 8
  %19 = load ptr, ptr %8, align 8
  %20 = call noundef ptr @_ZN10VectorNode24try_to_gen_masked_vectorEP8PhaseGVNP4NodePK8TypeVect(ptr noundef %18, ptr noundef %10, ptr noundef %19)
  store ptr %20, ptr %4, align 8
  br label %22

21:                                               ; preds = %3
  store ptr null, ptr %4, align 8
  br label %22

22:                                               ; preds = %21, %17
  %23 = load ptr, ptr %4, align 8
  ret ptr %23
}