; Function Attrs: mustprogress nounwind uwtable
define hidden noundef ptr @_ZN13ReductionNode5IdealEP8PhaseGVNb(ptr noundef nonnull align 8 dereferenceable(72) %0, ptr noundef %1, i1 zeroext %2) unnamed_addr #1 align 2 {
  %4 = load ptr, ptr %0, align 8
  %5 = getelementptr inbounds i8, ptr %4, i64 192
  %6 = load ptr, ptr %5, align 8
  %7 = tail call noundef ptr %6(ptr noundef nonnull align 8 dereferenceable(72) %0) #8
  %8 = tail call noundef zeroext i1 @_ZN7Matcher31vector_needs_partial_operationsEP4NodePK8TypeVect(ptr noundef nonnull %0, ptr noundef %7) #8
  br i1 %8, label %9, label %11

9:                                                ; preds = %3
  %10 = tail call noundef ptr @_ZN10VectorNode24try_to_gen_masked_vectorEP8PhaseGVNP4NodePK8TypeVect(ptr noundef %1, ptr noundef nonnull %0, ptr noundef %7)
  br label %11

11:                                               ; preds = %3, %9
  %.0 = phi ptr [ %10, %9 ], [ null, %3 ]
  ret ptr %.0
}